; Function Attrs: nounwind sspstrong uwtable
define internal void @vfio_intx_mmap_enable(ptr noundef %0) #0 {
  %2 = getelementptr inbounds nuw i8, ptr %0, i64 2968
  %3 = load i8, ptr %2, align 8, !range !6, !noundef !7
  %4 = trunc nuw i8 %3 to i1
  br i1 %4, label %5, label %14

5:                                                ; preds = %1
  %6 = getelementptr inbounds nuw i8, ptr %0, i64 3008
  %7 = load ptr, ptr %6, align 8
  %8 = tail call i64 @qemu_clock_get_ns(i32 noundef 1) #26
  %9 = sdiv i64 %8, 1000000
  %10 = getelementptr inbounds nuw i8, ptr %0, i64 3004
  %11 = load i32, ptr %10, align 4
  %12 = zext i32 %11 to i64
  %13 = add nsw i64 %9, %12
  tail call void @timer_mod(ptr noundef %7, i64 noundef %13) #26
  br label %vfio_mmap_set_enabled.exit

14:                                               ; preds = %1
  %15 = getelementptr inbounds nuw i8, ptr %0, i64 3096
  br label %16

16:                                               ; preds = %16, %14
  %indvars.iv.i = phi i64 [ 0, %14 ], [ %indvars.iv.next.i, %16 ]
  %17 = getelementptr inbounds nuw [6 x %struct.VFIOBAR], ptr %15, i64 0, i64 %indvars.iv.i
  tail call void @vfio_region_mmaps_set_enabled(ptr noundef nonnull %17, i1 noundef zeroext true) #26
  %indvars.iv.next.i = add nuw nsw i64 %indvars.iv.i, 1
  %exitcond.not.i = icmp eq i64 %indvars.iv.next.i, 6
  br i1 %exitcond.not.i, label %vfio_mmap_set_enabled.exit, label %16, !llvm.loop !25

vfio_mmap_set_enabled.exit:                       ; preds = %16, %5
  ret void
}